(lp0
(lp1
S'unknown'
p2
aVexpressionName
p3
aVvariableDeclaratorId
p4
aVtypeName
p5
aVunannClassType_lfno_unannClassOrInterfaceType
p6
aVblock
p7
aVliteral
p8
aVexpressionStatement
p9
aVmethodInvocation_lfno_primary
p10
aVmethodModifier
p11
aVformalParameter
p12
aVmethodDeclarator
p13
aVmethodHeader
p14
aVmethodDeclaration
p15
aVfieldModifier
p16
aVreturnStatement
p17
aVmethodInvocation
p18
aVassignmentOperator
p19
aVassignment
p20
aVprimaryNoNewArray_lfno_primary
p21
aVvariableDeclarator
p22
aVargumentList
p23
aVblockStatements
p24
aVclassType_lfno_classOrInterfaceType
p25
aVintegralType
p26
aVfieldDeclaration
p27
aVlocalVariableDeclaration
p28
aVambiguousName
p29
aVlocalVariableDeclarationStatement
p30
aVclassInstanceCreationExpression_lfno_primary
p31
aVtypeArguments
p32
aVmarkerAnnotation
p33
aVfieldAccess
p34
aVifThenStatement
p35
aVequalityExpression
p36
aVmethodName
p37
aVresult
p38
aVadditiveExpression
p39
aVprimary
p40
aVmethodInvocation_lf_primary
p41
aVclassType
p42
aVformalParameterList
p43
aVclassModifier
p44
aVunannPrimitiveType
p45
aVclassBody
p46
aVnormalClassDeclaration
p47
aVsimpleTypeName
p48
aVconstructorDeclaration
p49
aVconstructorBody
p50
aVconstructorDeclarator
p51
aVrelationalExpression
p52
aVconstructorModifier
p53
aVifThenElseStatement
p54
aVfieldAccess_lf_primary
p55
aVtypeArgumentList
p56
aVthrows_
p57
aVcastExpression
p58
aVdims
p59
aVvariableModifier
p60
aVformalParameters
p61
aVunannArrayType
p62
aVthrowStatement
p63
aVfloatingPointType
p64
aVsuperclass
p65
aVpackageOrTypeName
p66
aVconditionalAndExpression
p67
aVunannClassType_lf_unannClassOrInterfaceType
p68
aVexplicitConstructorInvocation
p69
aVarrayAccess_lfno_primary
p70
aVunaryExpressionNotPlusMinus
p71
aVunannClassOrInterfaceType
p72
aVmultiplicativeExpression
p73
aVsuperinterfaces
p74
aVconditionalOrExpression
p75
aVenhancedForStatement
p76
aVtryStatement
p77
aVwildcard
p78
aVswitchLabel
p79
aVcatchFormalParameter
p80
aVunannClassType
p81
aVcatchClause
p82
aVconditionalExpression
p83
aVpostIncrementExpression
p84
aVunaryExpression
p85
aVbasicForStatement
p86
aVswitchBlockStatementGroup
p87
aVtypeArgumentsOrDiamond
p88
aVarrayCreationExpression
p89
aVclassType_lf_classOrInterfaceType
p90
aVarrayAccess
p91
aVbreakStatement
p92
aVsingleElementAnnotation
p93
aVenumConstant
p94
aVclassOrInterfaceType
p95
aVdimExpr
p96
aVtypeParameter
p97
aVmethodReference_lfno_primary
p98
aVlambdaExpression
p99
aVlambdaParameters
p100
aVmethodBody
p101
aa(dp102
g36
I34
sg67
I65
sg53
I51
sg42
I40
sg33
I31
sg11
I9
sg44
I42
sg55
I53
sg95
I93
sg54
I52
sg21
I19
sg82
I80
sg84
I82
sg52
I50
sg60
I58
sg30
I28
sg17
I15
sg91
I89
sg12
I10
sg9
I7
sg3
I1
sg13
I11
sg43
I41
sg50
I48
sg64
I62
sg66
I64
sg99
I97
sg38
I36
sg85
I83
sg93
I91
sg101
I99
sg32
I30
sg100
I98
sg18
I16
sg34
I32
sg96
I94
sg39
I37
sg19
I17
sg61
I59
sg98
I96
sg27
I25
sg72
I70
sg71
I69
sg41
I39
sg56
I54
sg49
I47
sg7
I5
sg26
I24
sg28
I26
sg37
I35
sg40
I38
sg5
I3
sg46
I44
sg86
I84
sg94
I92
sg2
I0
sg25
I23
sg8
I6
sg80
I78
sg83
I81
sg63
I61
sg90
I88
sg22
I20
sg79
I77
sg65
I63
sg97
I95
sg23
I21
sg29
I27
sg73
I71
sg92
I90
sg74
I72
sg81
I79
sg87
I85
sg15
I13
sg10
I8
sg6
I4
sg70
I68
sg47
I45
sg45
I43
sg77
I75
sg48
I46
sg62
I60
sg4
I2
sg31
I29
sg24
I22
sg14
I12
sg51
I49
sg20
I18
sg59
I57
sg16
I14
sg35
I33
sg75
I73
sg89
I87
sg58
I56
sg88
I86
sg57
I55
sg68
I66
sg78
I76
sg69
I67
sg76
I74
sa(lp103
S'[unknown]'
p104
aVpublic
p105
aVget
p106
aVreturn
p107
aVstring
p108
aVthis
p109
aVnew
p110
aVif
p111
aVprivate
p112
aVint
p113
aVset
p114
aVname
p115
aVfinal
p116
aVnull
p117
aVvoid
p118
aVvalue
p119
aVclass
p120
aVoverride
p121
aVfield
p122
aVexception
p123
aVtype
p124
aVstatic
p125
aVindex
p126
aVlist
p127
aVboolean
p128
aVbuilder
p129
aVrequest
p130
aVid
p131
aVobject
p132
aVto
p133
aVmap
p134
aVdata
p135
aVkey
p136
aVsize
p137
aVlong
p138
aVcontext
p139
aVresult
p140
aVis
p141
aVquery
p142
aVfile
p143
aVadd
p144
aVcontent
p145
aVelse
p146
aVbyte
p147
aVwrite
p148
aVview
p149
aVlength
p150
aVparser
p151
aVtime
p152
aVresponse
p153
aVinfo
p154
aVthrows
p155
aVnode
p156
aVarray
p157
aVfor
p158
aVin
p159
aVmax
p160
aVcount
p161
aVfalse
p162
aVstream
p163
aVstate
p164
aVsource
p165
aVextends
p166
aVpath
p167
aVread
p168
aVhash
p169
aVprotected
p170
aVaction
p171
aVparse
p172
aVsuper
p173
aVon
p174
aVout
p175
aVtable
p176
aVtoken
p177
aVdouble
p178
aVcache
p179
aVequals
p180
aVthrow
p181
aVbytes
p182
aVversion
p183
aVtrue
p184
aVparams
p185
aVsettings
p186
aVservice
p187
aVconfig
p188
aVshard
p189
aVlistener
p190
aVput
p191
aVtext
p192
aVbuffer
p193
aVstart
p194
aVdoc
p195
aVentry
p196
aVchannel
p197
aVinput
p198
aVdefault
p199
aVcode
p200
aVcurrent
p201
aVmessage
p202
aVlogger
p203
aa(dp204
g200
I96
sg192
I88
sg142
I38
sg201
I97
sg179
I75
sg133
I29
sg144
I40
sg166
I62
sg121
I17
sg198
I94
sg203
I99
sg161
I57
sg107
I3
sg108
I4
sg106
I2
sg168
I64
sg118
I14
sg190
I86
sg115
I11
sg186
I82
sg182
I78
sg199
I95
sg177
I73
sg149
I45
sg114
I10
sg127
I23
sg125
I21
sg140
I36
sg202
I98
sg175
I71
sg126
I22
sg158
I54
sg145
I41
sg164
I60
sg183
I79
sg110
I6
sg105
I1
sg169
I65
sg180
I76
sg136
I32
sg191
I87
sg167
I63
sg147
I43
sg173
I69
sg181
I77
sg174
I70
sg150
I46
sg139
I35
sg171
I67
sg155
I51
sg112
I8
sg128
I24
sg176
I72
sg157
I53
sg137
I33
sg187
I83
sg165
I61
sg138
I34
sg120
I16
sg194
I90
sg185
I81
sg124
I20
sg116
I12
sg146
I42
sg184
I80
sg154
I50
sg123
I19
sg109
I5
sg178
I74
sg119
I15
sg170
I66
sg104
I0
sg162
I58
sg163
I59
sg113
I9
sg141
I37
sg151
I47
sg189
I85
sg172
I68
sg143
I39
sg159
I55
sg117
I13
sg131
I27
sg111
I7
sg148
I44
sg122
I18
sg188
I84
sg197
I93
sg156
I52
sg134
I30
sg193
I89
sg160
I56
sg132
I28
sg135
I31
sg153
I49
sg195
I91
sg129
I25
sg130
I26
sg152
I48
sg196
I92
sa.