ccollections
OrderedDict
p1
((lp2
(lp3
S'1.cz'
p4
a(lp5
S'1.cz'
p6
a(lp7
S'/s\\/([^\\/]+)/'
p8
aS'q'
aaS's/{k}'
p9
aS'iso-8859-2'
p10
aaa(lp11
S'www.123people.com'
p12
a(lp13
S'123people'
p14
a(lp15
S'/s\\/([^\\/]+)/'
p16
aS'search_term'
p17
aaS's/{k}'
p18
aaa(lp19
S'123people.{}'
p20
a(lp21
g14
aaa(lp22
S'so.360.cn'
p23
a(lp24
S'360search'
p25
aS'q'
aS's?q={k}'
p26
a(lp27
S'UTF-8'
p28
aS'gb2312'
p29
aaaa(lp30
S'www.so.com'
p31
a(lp32
g25
aS'q'
aS's?q={k}'
p33
a(lp34
S'UTF-8'
p35
ag29
aaaa(lp36
S'm.so.com'
p37
a(lp38
g25
aS'q'
aS's?q={k}'
p39
a(lp40
S'UTF-8'
p41
ag29
aaaa(lp42
S'www.abacho.de'
p43
a(lp44
S'Abacho'
p45
aS'q'
aS'suche?q={k}'
p46
aaa(lp47
S'www.abacho.com'
p48
a(lp49
g45
aaa(lp50
S'www.abacho.co.uk'
p51
a(lp52
g45
aaa(lp53
S'www.se.abacho.com'
p54
a(lp55
g45
aaa(lp56
S'www.tr.abacho.com'
p57
a(lp58
g45
aaa(lp59
S'www.abacho.at'
p60
a(lp61
g45
aaa(lp62
S'www.abacho.fr'
p63
a(lp64
g45
aaa(lp65
S'www.abacho.es'
p66
a(lp67
g45
aaa(lp68
S'www.abacho.ch'
p69
a(lp70
g45
aaa(lp71
S'www.abacho.it'
p72
a(lp73
g45
aaa(lp74
S'abcsok.no'
p75
a(lp76
S'ABCs\xc3\xb8k'
p77
aS'q'
aS'?q={k}'
p78
aaa(lp79
S'verden.abcsok.no'
p80
a(lp81
S'ABCs\xc3\xb8k'
p82
aaa(lp83
S'www.acoon.de'
p84
a(lp85
S'Acoon'
p86
aS'begriff'
p87
aS'cgi-bin/search.exe?begriff={k}'
p88
aaa(lp89
S'chercherfr.aguea.com'
p90
a(lp91
S'Aguea'
p92
aS'q'
aS's.py?q={k}'
p93
aaa(lp94
S'alexa.com'
p95
a(lp96
S'Alexa'
p97
aS'q'
aS'search?q={k}'
p98
aaa(lp99
S'search.toolbars.alexa.com'
p100
a(lp101
g97
aaa(lp102
S'rechercher.aliceadsl.fr'
p103
a(lp104
S'Alice Adsl'
p105
aS'qs'
p106
aS'google.pl?qs={k}'
p107
aaa(lp108
S'www.allesklar.de'
p109
a(lp110
S'Allesklar'
p111
aS'words'
p112
aS'?words={k}'
p113
aaa(lp114
S'www.allesklar.at'
p115
a(lp116
g111
aaa(lp117
S'www.allesklar.ch'
p118
a(lp119
g111
aaa(lp120
S'www.alltheweb.com'
p121
a(lp122
S'AllTheWeb'
p123
aS'q'
aS'search?q={k}'
p124
aaa(lp125
S'all.by'
p126
a(lp127
S'All.by'
p128
aS'query'
p129
aS'cgi-bin/search.cgi?mode=by&query={k}'
p130
aaa(lp131
S'www.altavista.com'
p132
a(lp133
S'AltaVista'
p134
aS'q'
aS'web/results?q={k}'
p135
aaa(lp136
S'search.altavista.com'
p137
a(lp138
g134
aaa(lp139
S'listings.altavista.com'
p140
a(lp141
g134
aaa(lp142
S'altavista.de'
p143
a(lp144
g134
aaa(lp145
S'altavista.fr'
p146
a(lp147
g134
aaa(lp148
S'{}.altavista.com'
p149
a(lp150
g134
aaa(lp151
S'be-nl.altavista.com'
p152
a(lp153
g134
aaa(lp154
S'be-fr.altavista.com'
p155
a(lp156
g134
aaa(lp157
S'apollo.lv/portal/search/'
p158
a(lp159
S'Apollo lv'
p160
aS'q'
aS'?cof=FORID%3A11&q={k}&search_where=www'
p161
aaa(lp162
S'apollo7.de'
p163
a(lp164
S'Apollo7'
p165
ag129
aS'a7db/index.php?query={k}&de_sharelook=true&de_bing=true&de_witch=true&de_google=true&de_yahoo=true&de_lycos=true'
p166
aaa(lp167
S'search.aol.com'
p168
a(lp169
S'AOL'
p170
a(lp171
g129
aS'q'
aaS'aol/search?q={k}'
p172
aaa(lp173
S'search.aol.it'
p174
a(lp175
g170
aaa(lp176
S'aolsearch.aol.com'
p177
a(lp178
g170
aaa(lp179
S'www.aolrecherche.aol.fr'
p180
a(lp181
g170
aaa(lp182
S'www.aolrecherches.aol.fr'
p183
a(lp184
g170
aaa(lp185
S'www.aolimages.aol.fr'
p186
a(lp187
g170
aaa(lp188
S'aim.search.aol.com'
p189
a(lp190
g170
aaa(lp191
S'www.recherche.aol.fr'
p192
a(lp193
g170
aaa(lp194
S'recherche.aol.fr'
p195
a(lp196
g170
aaa(lp197
S'find.web.aol.com'
p198
a(lp199
g170
aaa(lp200
S'recherche.aol.ca'
p201
a(lp202
g170
aaa(lp203
S'aolsearch.aol.co.uk'
p204
a(lp205
g170
aaa(lp206
S'search.aol.co.uk'
p207
a(lp208
g170
aaa(lp209
S'aolrecherche.aol.fr'
p210
a(lp211
g170
aaa(lp212
S'sucheaol.aol.de'
p213
a(lp214
g170
aaa(lp215
S'suche.aol.de'
p216
a(lp217
g170
aaa(lp218
S'o2suche.aol.de'
p219
a(lp220
g170
aaa(lp221
S'suche.aolsvc.de'
p222
a(lp223
g170
aaa(lp224
S'aolbusqueda.aol.com.mx'
p225
a(lp226
g170
aaa(lp227
S'alicesuche.aol.de'
p228
a(lp229
g170
aaa(lp230
S'alicesuchet.aol.de'
p231
a(lp232
g170
aaa(lp233
S'suchet2.aol.de'
p234
a(lp235
g170
aaa(lp236
S'search.hp.my.aol.com.au'
p237
a(lp238
g170
aaa(lp239
S'search.hp.my.aol.de'
p240
a(lp241
g170
aaa(lp242
S'search.hp.my.aol.it'
p243
a(lp244
g170
aaa(lp245
S'search-intl.netscape.com'
p246
a(lp247
g170
aaa(lp248
S'de.aolsearch.com'
p249
a(lp250
g170
aS'q'
aS'search?q={k}'
p251
aaa(lp252
S'sm.aport.ru'
p253
a(lp254
S'Aport'
p255
aS'r'
aS'search?r={k}'
p256
aaa(lp257
S'arama.com'
p258
a(lp259
S'Arama'
p260
aS'q'
aS'search.php3?q={k}'
p261
aaa(lp262
S'www.arcor.de'
p263
a(lp264
S'Arcor'
p265
aS'Keywords'
p266
aS'content/searchresult.jsp?Keywords={k}'
p267
aaa(lp268
S'arianna.libero.it'
p269
a(lp270
S'Arianna'
p271
ag129
aS'search/abin/integrata.cgi?query={k}'
p272
aaa(lp273
S'www.arianna.com'
p274
a(lp275
g271
aaa(lp276
S'ask.com'
p277
a(lp278
S'Ask'
p279
a(lp280
S'ask'
p281
aS'q'
aS'searchfor'
p282
aaS'web?q={k}'
p283
aaa(lp284
S'web.ask.com'
p285
a(lp286
g279
aaa(lp287
S'int.ask.com'
p288
a(lp289
g279
aaa(lp290
S'mws.ask.com'
p291
a(lp292
g279
aaa(lp293
S'images.ask.com'
p294
a(lp295
g279
aaa(lp296
S'images.{}.ask.com'
p297
a(lp298
g279
aaa(lp299
S'ask.reference.com'
p300
a(lp301
g279
aaa(lp302
S'www.askkids.com'
p303
a(lp304
g279
aaa(lp305
S'iwon.ask.com'
p306
a(lp307
g279
aaa(lp308
S'www.ask.co.uk'
p309
a(lp310
g279
aaa(lp311
S'{}.ask.com'
p312
a(lp313
g279
aaa(lp314
S'www.qbyrd.com'
p315
a(lp316
g279
aaa(lp317
S'{}.qbyrd.com'
p318
a(lp319
g279
aaa(lp320
S'www.search-results.com'
p321
a(lp322
g279
aaa(lp323
S'www1.search-results.com'
p324
a(lp325
g279
aaa(lp326
S'int.search-results.com'
p327
a(lp328
g279
aaa(lp329
S'{}.search-results.com'
p330
a(lp331
g279
aaa(lp332
S'search.ask.com'
p333
a(lp334
g279
aaa(lp335
S'{}.search.ask.com'
p336
a(lp337
g279
aaa(lp338
S'avira-int.ask.com'
p339
a(lp340
g279
aaa(lp341
S'searchqu.com'
p342
a(lp343
g279
aaa(lp344
S'search.tb.ask.com'
p345
a(lp346
g279
aaa(lp347
S'nortonsafe.search.ask.com'
p348
a(lp349
g279
aaa(lp350
S'safesearch.avira.com'
p351
a(lp352
g279
aaa(lp353
S'avira.search.ask.com'
p354
a(lp355
g279
aaa(lp356
S'int.search.tb.ask.com'
p357
a(lp358
g279
aaa(lp359
S'searchatlas.centrum.cz'
p360
a(lp361
S'Atlas'
p362
aS'q'
aS'?q={k}'
p363
aaa(lp364
S'search.auone.jp'
p365
a(lp366
S'auone'
p367
aS'q'
aS'?q={k}'
p368
aaa(lp369
S'sp-image.search.auone.jp'
p370
a(lp371
S'auone Images'
p372
aS'q'
aS'?q={k}'
p373
aaa(lp374
S'www2.austronaut.at'
p375
a(lp376
S'Austronaut'
p377
aS'q'
aaa(lp378
S'www1.austronaut.at'
p379
a(lp380
g377
aaa(lp381
S'search.babylon.com'
p382
a(lp383
S'Babylon'
p384
a(lp385
S'q'
aS'/\\/web\\/(.*)/'
p386
aaS'?q={k}'
p387
aaa(lp388
S'searchassist.babylon.com'
p389
a(lp390
g384
aaa(lp391
S'www.baidu.com'
p392
a(lp393
S'Baidu'
p394
a(lp395
S'wd'
p396
aS'word'
p397
aS'kw'
p398
aaS's?wd={k}'
p399
a(lp400
S'UTF-8'
p401
ag29
aaaa(lp402
S'www1.baidu.com'
p403
a(lp404
g394
aaa(lp405
S'm.baidu.com'
p406
a(lp407
g394
aaa(lp408
S'www.baidu.co.th'
p409
a(lp410
g394
aaa(lp411
S'zhidao.baidu.com'
p412
a(lp413
g394
aaa(lp414
S'tieba.baidu.com'
p415
a(lp416
g394
aaa(lp417
S'news.baidu.com'
p418
a(lp419
g394
aaa(lp420
S'web.gougou.com'
p421
a(lp422
g394
aS'search'
p423
aS'search?search={k}'
p424
aaa(lp425
S'sp0.baidu.com'
p426
a(lp427
g394
ag396
aS'adrc.php?wd={k}'
p428
a(lp429
S'UTF-8'
p430
ag29
aaaa(lp431
S'cgi.search.biglobe.ne.jp'
p432
a(lp433
S'Biglobe'
p434
aS'q'
aS'cgi-bin/search-st?q={k}'
p435
aaa(lp436
S'images.search.biglobe.ne.jp'
p437
a(lp438
S'Biglobe Images'
p439
aS'q'
aS'cgi-bin/search-st?q={k}'
p440
aaa(lp441
S'bing.com'
p442
a(lp443
S'Bing'
p444
a(lp445
S'q'
aS'Q'
aaS'search?q={k}'
p446
aaa(lp447
S'{}.bing.com'
p448
a(lp449
g444
aaa(lp450
S'msnbc.msn.com'
p451
a(lp452
g444
aaa(lp453
S'dizionario.it.msn.com'
p454
a(lp455
g444
aaa(lp456
S'enciclopedia.it.msn.com'
p457
a(lp458
g444
aaa(lp459
S'cc.bingj.com'
p460
a(lp461
g444
aaa(lp462
S'bing.com/images/search'
p463
a(lp464
S'Bing Images'
p465
a(lp466
S'q'
aS'Q'
aaS'?q={k}'
p467
aaa(lp468
S'{}.bing.com/images/search'
p469
a(lp470
S'Bing Images'
p471
aaa(lp472
S'blekko.com'
p473
a(lp474
S'blekko'
p475
a(lp476
S'q'
aS'/\\/ws\\/(.*)/'
p477
aaS'ws/{k}'
p478
aaa(lp479
S'www.blogdigger.com'
p480
a(lp481
S'Blogdigger'
p482
aS'q'
aaa(lp483
S'www.blogpulse.com'
p484
a(lp485
S'Blogpulse'
p486
ag129
aS'search?query={k}'
p487
aaa(lp488
S'search.bluewin.ch'
p489
a(lp490
S'Bluewin'
p491
a(lp492
S'searchTerm'
p493
aS'q'
aaS'v2/index.php?q={k}'
p494
aaa(lp495
S'web.canoe.ca'
p496
a(lp497
S'Canoe.ca'
p498
aS'q'
aS'search?q={k}'
p499
aaa(lp500
S'search.centrum.cz'
p501
a(lp502
S'Centrum'
p503
aS'q'
aS'?q={k}'
p504
aaa(lp505
S'morfeo.centrum.cz'
p506
a(lp507
g503
aaa(lp508
S'www.charter.net'
p509
a(lp510
S'Charter'
p511
aS'q'
aS'search/index.php?q={k}'
p512
aaa(lp513
S'claro-search.com'
p514
a(lp515
S'Claro Search'
p516
aS'q'
aS'?q={k}'
p517
aaa(lp518
S'pesquisa.clix.pt'
p519
a(lp520
S'Clix'
p521
aS'question'
p522
aS'resultado.html?in=Mundial&question={k}'
p523
aaa(lp524
S'search.conduit.com'
p525
a(lp526
S'Conduit.com'
p527
aS'q'
aS'Results.aspx?q={k}'
p528
aaa(lp529
S'images.search.conduit.com'
p530
a(lp531
S'Conduit.com'
p532
aaa(lp533
S'search.comcast.net'
p534
a(lp535
S'Comcast'
p536
aS'q'
aS'?q={k}'
p537
aaa(lp538
S'www.crawler.com'
p539
a(lp540
S'Crawler'
p541
aS'q'
aS'search/results1.aspx?q={k}'
p542
aaa(lp543
S'websearch.cs.com'
p544
a(lp545
S'Compuserve.com (Enhanced by Google)'
p546
ag129
aS'cs/search?query={k}'
p547
aaa(lp548
S'www.cuil.com'
p549
a(lp550
S'Cuil'
p551
aS'q'
aS'search?q={k}'
p552
aaa(lp553
S'daemon-search.com'
p554
a(lp555
S'Daemon search'
p556
aS'q'
aS'explore/web?q={k}'
p557
aaa(lp558
S'my.daemon-search.com'
p559
a(lp560
S'Daemon search'
p561
aaa(lp562
S'www.dasoertliche.de'
p563
a(lp564
S'DasOertliche'
p565
ag398
aaa(lp566
S'www2.dasoertliche.de'
p567
a(lp568
g565
a(lp569
S'ph'
p570
ag398
aaaa(lp571
S'www1.dastelefonbuch.de'
p572
a(lp573
S'DasTelefonbuch'
p574
ag398
aaa(lp575
S'search.daum.net'
p576
a(lp577
S'Daum'
p578
aS'q'
aS'search?q={k}'
p579
aaa(lp580
S'smart.delfi.lv'
p581
a(lp582
S'Delfi lv'
p583
aS'q'
aS'find?q={k}'
p584
aaa(lp585
S'otsing.delfi.ee'
p586
a(lp587
S'Delfi EE'
p588
aS'q'
aS'find?q={k}'
p589
aaa(lp590
S'digg.com'
p591
a(lp592
S'Digg'
p593
aS's'
aS'search?s={k}'
p594
aaa(lp595
S'fr.dir.com'
p596
a(lp597
S'dir.com'
p598
aS'req'
p599
aaa(lp600
S'dmoz.org'
p601
a(lp602
S'dmoz'
p603
ag423
aaa(lp604
S'editors.dmoz.org'
p605
a(lp606
g603
aaa(lp607
S'duckduckgo.com'
p608
a(lp609
S'DuckDuckGo'
p610
aS'q'
aS'?q={k}'
p611
aaa(lp612
S'r.duckduckgo.com'
p613
a(lp614
g610
aaa(lp615
S'search.earthlink.net'
p616
a(lp617
S'Earthlink'
p618
aS'q'
aS'search?q={k}'
p619
aaa(lp620
S'ecosia.org'
p621
a(lp622
S'Ecosia'
p623
aS'q'
aS'search.php?q={k}'
p624
aaa(lp625
S'www.eniro.se'
p626
a(lp627
S'Eniro'
p628
a(lp629
S'q'
aS'search_word'
p630
aaS'query?q={k}'
p631
aaa(lp632
S'www.eurip.com'
p633
a(lp634
S'Eurip'
p635
aS'q'
aS'search/?q={k}'
p636
aaa(lp637
S'www.euroseek.com'
p638
a(lp639
S'Euroseek'
p640
aS'string'
p641
aS'system/search.cgi?string={k}'
p642
aaa(lp643
S'www.everyclick.com'
p644
a(lp645
S'Everyclick'
p646
aS'keyword'
p647
aaa(lp648
S'search.excite.it'
p649
a(lp650
S'Excite'
p651
aS'q'
aS'web/?q={k}'
p652
aaa(lp653
S'search.excite.fr'
p654
a(lp655
g651
aaa(lp656
S'search.excite.de'
p657
a(lp658
g651
aaa(lp659
S'search.excite.co.uk'
p660
a(lp661
g651
aaa(lp662
S'search.excite.es'
p663
a(lp664
g651
aaa(lp665
S'search.excite.nl'
p666
a(lp667
g651
aaa(lp668
S'msxml.excite.com'
p669
a(lp670
g651
aS'/\\/[^\\/]+\\/ws\\/results\\/[^\\/]+\\/([^\\/]+)/'
p671
aaa(lp672
S'www.excite.co.jp'
p673
a(lp674
g651
ag423
aS'search.gw?search={k}'
p675
aS'SHIFT_JIS'
p676
aaa(lp677
S'www.exalead.fr'
p678
a(lp679
S'Exalead'
p680
aS'q'
aS'search/results?q={k}'
p681
aaa(lp682
S'www.exalead.com'
p683
a(lp684
g680
aaa(lp685
S'eo.st'
p686
a(lp687
S'eo'
p688
aS'x_query'
p689
aS'cgi-bin/eolost.cgi?x_query={k}'
p690
aaa(lp691
S'www.facebook.com'
p692
a(lp693
S'Facebook'
p694
aS'q'
aS'search/?q={k}'
p695
aaa(lp696
S'www.fastbrowsersearch.com'
p697
a(lp698
S'Fast Browser Search'
p699
aS'q'
aS'results/results.aspx?q={k}'
p700
aaa(lp701
S'recherche.francite.com'
p702
a(lp703
S'Francite'
p704
aS'name'
p705
aaa(lp706
S'www.findhurtig.dk'
p707
a(lp708
S'Findhurtig'
p709
aS'q'
aS'web?q={k}'
p710
aaa(lp711
S'www.fireball.de'
p712
a(lp713
S'Fireball'
p714
aS'q'
aS'ajax.asp?q={k}'
p715
aaa(lp716
S'www.firstsfind.com'
p717
a(lp718
S'Firstsfind'
p719
aS'qry'
p720
aaa(lp721
S'www.fixsuche.de'
p722
a(lp723
S'Fixsuche'
p724
aS'q'
aaa(lp725
S'www.flix.de'
p726
a(lp727
S'Flix.de'
p728
ag647
aaa(lp729
S'forestle.org'
p730
a(lp731
S'Forestle'
p732
aS'q'
aS'search.php?q={k}'
p733
aaa(lp734
S'{}.forestle.org'
p735
a(lp736
g732
aaa(lp737
S'forestle.mobi'
p738
a(lp739
g732
aaa(lp740
S'search.free.fr'
p741
a(lp742
S'Free'
p743
aS'q'
aaa(lp744
S'search1-2.free.fr'
p745
a(lp746
g743
aaa(lp747
S'search1-1.free.fr'
p748
a(lp749
g743
aaa(lp750
S'search.freecause.com'
p751
a(lp752
S'FreeCause'
p753
aS'p'
aS'?p={k}'
p754
aaa(lp755
S'suche.freenet.de'
p756
a(lp757
S'Freenet'
p758
a(lp759
g129
ag266
aaS'suche/?query={k}'
p760
aaa(lp761
S'friendfeed.com'
p762
a(lp763
S'FriendFeed'
p764
aS'q'
aS'search?q={k}'
p765
aaa(lp766
S'gais.cs.ccu.edu.tw'
p767
a(lp768
S'GAIS'
p769
aS'q'
aS'search.php?q={k}'
p770
aaa(lp771
S'search.genieo.com'
p772
a(lp773
S'Genieo'
p774
aS'q'
aS'&q={k}'
p775
aaa(lp776
S'geona.net'
p777
a(lp778
S'Geona'
p779
aS'q'
aS'search?q={k}'
p780
aaa(lp781
S'www.gigablast.com'
p782
a(lp783
S'Gigablast'
p784
aS'q'
aS'search?q={k}'
p785
aaa(lp786
S'dir.gigablast.com'
p787
a(lp788
S'Gigablast (Directory)'
p789
aS'q'
aaa(lp790
S'www.gnadenmeer.de'
p791
a(lp792
S'Gnadenmeer'
p793
ag647
aaa(lp794
S'www.gomeo.com'
p795
a(lp796
S'Gomeo'
p797
a(lp798
g266
aS'/\\/search\\/([^\\/]+)/'
p799
aaS'/search/{k}'
p800
aaa(lp801
S'search.goo.ne.jp'
p802
a(lp803
S'goo'
p804
aS'MT'
p805
aS'web.jsp?MT={k}'
p806
aaa(lp807
S'ocnsearch.goo.ne.jp'
p808
a(lp809
g804
aaa(lp810
S'google.com'
p811
a(lp812
S'Google'
p813
aS'q'
aS'search?q={k}'
p814
aaa(lp815
S'google.{}'
p816
a(lp817
g813
aaa(lp818
S'www2.google.com'
p819
a(lp820
g813
aaa(lp821
S'ipv6.google.com'
p822
a(lp823
g813
aaa(lp824
S'go.google.com'
p825
a(lp826
g813
aaa(lp827
S'wwwgoogle.com'
p828
a(lp829
g813
aaa(lp830
S'wwwgoogle.{}'
p831
a(lp832
g813
aaa(lp833
S'gogole.com'
p834
a(lp835
g813
aaa(lp836
S'gogole.{}'
p837
a(lp838
g813
aaa(lp839
S'gppgle.com'
p840
a(lp841
g813
aaa(lp842
S'gppgle.{}'
p843
a(lp844
g813
aaa(lp845
S'googel.com'
p846
a(lp847
g813
aaa(lp848
S'googel.{}'
p849
a(lp850
g813
aaa(lp851
S'search.avg.com'
p852
a(lp853
g813
aaa(lp854
S'isearch.avg.com'
p855
a(lp856
g813
aaa(lp857
S'www.cnn.com'
p858
a(lp859
g813
ag129
aaa(lp860
S'darkoogle.com'
p861
a(lp862
g813
aaa(lp863
S'search.darkoogle.com'
p864
a(lp865
g813
aaa(lp866
S'search.foxtab.com'
p867
a(lp868
g813
aaa(lp869
S'www.gooofullsearch.com'
p870
a(lp871
g813
ag266
aaa(lp872
S'search.hiyo.com'
p873
a(lp874
g813
aaa(lp875
S'search.incredimail.com'
p876
a(lp877
g813
aaa(lp878
S'search1.incredimail.com'
p879
a(lp880
g813
aaa(lp881
S'search2.incredimail.com'
p882
a(lp883
g813
aaa(lp884
S'search3.incredimail.com'
p885
a(lp886
g813
aaa(lp887
S'search4.incredimail.com'
p888
a(lp889
g813
aaa(lp890
S'search.sweetim.com'
p891
a(lp892
g813
aaa(lp893
S'www.fastweb.it'
p894
a(lp895
g813
aaa(lp896
S'search.juno.com'
p897
a(lp898
g813
ag129
aaa(lp899
S'find.tdc.dk'
p900
a(lp901
g813
aaa(lp902
S'it.luna.tv'
p903
a(lp904
g813
aaa(lp905
S'searchresults.verizon.com'
p906
a(lp907
g813
aaa(lp908
S'search.walla.co.il'
p909
a(lp910
g813
aaa(lp911
S'search.alot.com'
p912
a(lp913
g813
aaa(lp914
S'suche.gmx.net'
p915
a(lp916
g813
aS'q'
aS'web?q={k}'
p917
aaa(lp918
S'search.incredibar.com'
p919
a(lp920
g813
aS'q'
aS'search.php?q={k}'
p921
aaa(lp922
S'www.delta-search.com'
p923
a(lp924
g813
aS'q'
aaa(lp925
S'www1.delta-search.com'
p926
a(lp927
g813
aS'q'
aaa(lp928
S'search.1und1.de'
p929
a(lp930
g813
aS'q'
aS'web?q={k}'
p931
aaa(lp932
S'suche.1und1.de'
p933
a(lp934
g813
aS'q'
aS'web?q={k}'
p935
aaa(lp936
S'search.zonealarm.com'
p937
a(lp938
g813
aaa(lp939
S'start.lenovo.com'
p940
a(lp941
g813
aS'q'
aS'search/index.php?q={k}'
p942
aaa(lp943
S'wow.com'
p944
a(lp945
g813
aaa(lp946
S'{}.wow.com'
p947
a(lp948
g813
aaa(lp949
S'search.leonardo.it'
p950
a(lp951
g813
aaa(lp952
S'www.optuszoo.com.au'
p953
a(lp954
g813
aaa(lp955
S'search.dolphin-browser.jp'
p956
a(lp957
g813
aaa(lp958
S'search.smt.docomo.ne.jp'
p959
a(lp960
g813
ag805
aaa(lp961
S'image.search.smt.docomo.ne.jp'
p962
a(lp963
g813
ag805
aaa(lp964
S'gfsoso.com'
p965
a(lp966
g813
aS'q'
aaa(lp967
S'searches.safehomepage.com'
p968
a(lp969
g813
aS'q'
aaa(lp970
S'searches.f-secure.com'
p971
a(lp972
g813
ag129
aS'search?query={k}'
p973
aaa(lp974
S'startgoogle.startpagina.nl'
p975
a(lp976
S'Startpagina (Google)'
p977
aS'q'
aS'?q={k}'
p978
aaa(lp979
S'webcache.googleusercontent.com'
p980
a(lp981
g813
aS'/\\/search\\?q=cache:[A-Za-z0-9]+:[^+]+([^&]+)/'
p982
aS'search?q={k}'
p983
aaa(lp984
S'encrypted.google.com'
p985
a(lp986
S'Google SSL'
p987
aS'q'
aS'search?q={k}'
p988
aaa(lp989
S'blogsearch.google.com'
p990
a(lp991
S'Google Blogsearch'
p992
aS'q'
aS'blogsearch?q={k}'
p993
aaa(lp994
S'blogsearch.google.{}'
p995
a(lp996
S'Google Blogsearch'
p997
aaa(lp998
S'google.com/cse'
p999
a(lp1000
S'Google Custom Search'
p1001
a(lp1002
S'q'
ag129
aaaa(lp1003
S'google.{}/cse'
p1004
a(lp1005
S'Google Custom Search'
p1006
aaa(lp1007
S'google.com/custom'
p1008
a(lp1009
S'Google Custom Search'
p1010
aaa(lp1011
S'google.{}/custom'
p1012
a(lp1013
S'Google Custom Search'
p1014
aaa(lp1015
S'translate.google.com'
p1016
a(lp1017
S'Google Translations'
p1018
aS'q'
aaa(lp1019
S'images.google.com'
p1020
a(lp1021
S'Google Images'
p1022
aS'q'
aS'images?q={k}'
p1023
aaa(lp1024
S'images.google.{}'
p1025
a(lp1026
S'Google Images'
p1027
aaa(lp1028
S'maps.google.com'
p1029
a(lp1030
S'Google Maps'
p1031
aS'q'
aS'maps?q={k}'
p1032
aaa(lp1033
S'maps.google.{}'
p1034
a(lp1035
S'Google Maps'
p1036
aaa(lp1037
S'news.google.com'
p1038
a(lp1039
S'Google News'
p1040
aS'q'
aaa(lp1041
S'news.google.{}'
p1042
a(lp1043
S'Google News'
p1044
aaa(lp1045
S'google.com/products'
p1046
a(lp1047
S'Google Shopping'
p1048
aS'q'
aS'?q={k}&tbm=shop'
p1049
aaa(lp1050
S'google.{}/products'
p1051
a(lp1052
S'Google Shopping'
p1053
aaa(lp1054
S'googlesyndicatedsearch.com'
p1055
a(lp1056
S'Google syndicated search'
p1057
aS'q'
aaa(lp1058
S'video.google.com'
p1059
a(lp1060
S'Google Video'
p1061
aS'q'
aS'search?q={k}&tbm=vid'
p1062
aaa(lp1063
S'scholar.google.com'
p1064
a(lp1065
S'Google Scholar'
p1066
aS'q'
aS'scholar?q={k}'
p1067
aaa(lp1068
S'scholar.google.{}'
p1069
a(lp1070
S'Google Scholar'
p1071
aaa(lp1072
S'www.goyellow.de'
p1073
a(lp1074
S'GoYellow.de'
p1075
aS'MDN'
p1076
aaa(lp1077
S'www.gulesider.no'
p1078
a(lp1079
S'Gule Sider'
p1080
aS'q'
aaa(lp1081
S'www.haosou.com'
p1082
a(lp1083
S'Haosou'
p1084
aS'q'
aS's?q={k}'
p1085
aaa(lp1086
S'www.highbeam.com'
p1087
a(lp1088
S'HighBeam'
p1089
aS'q'
aS'Search.aspx?q={k}'
p1090
aaa(lp1091
S'req.hit-parade.com'
p1092
a(lp1093
S'Hit-Parade'
p1094
aS'p7'
p1095
aS'general/recherche.asp?p7={k}'
p1096
aaa(lp1097
S'class.hit-parade.com'
p1098
a(lp1099
S'Hit-Parade'
p1100
aaa(lp1101
S'www.hit-parade.com'
p1102
a(lp1103
S'Hit-Parade'
p1104
aaa(lp1105
S'holmes.ge'
p1106
a(lp1107
S'Holmes'
p1108
aS'q'
aS'search.htm?q={k}'
p1109
aaa(lp1110
S'www.hooseek.com'
p1111
a(lp1112
S'Hooseek'
p1113
aS'recherche'
p1114
aS'web?recherche={k}'
p1115
aaa(lp1116
S'www.hotbot.com'
p1117
a(lp1118
S'Hotbot'
p1119
ag129
aaa(lp1120
S'blogs.icerocket.com'
p1121
a(lp1122
S'Icerocket'
p1123
aS'q'
aS'search?q={k}'
p1124
aaa(lp1125
S'www.icq.com'
p1126
a(lp1127
S'ICQ'
p1128
aS'q'
aS'search/results.php?q={k}'
p1129
aaa(lp1130
S'search.icq.com'
p1131
a(lp1132
g1128
aaa(lp1133
S'www.ilse.nl'
p1134
a(lp1135
S'Ilse NL'
p1136
aS'search_for'
p1137
aS'?search_for={k}'
p1138
aaa(lp1139
S'search.imesh.com'
p1140
a(lp1141
S'iMesh'
p1142
a(lp1143
S'q'
aS'si'
p1144
aaS'web?q={k}'
p1145
aaa(lp1146
S'www2.inbox.com'
p1147
a(lp1148
S'Inbox'
p1149
aS'q'
aS'search/results1.aspx?q={k}'
p1150
aaa(lp1151
S'infospace.com'
p1152
a(lp1153
S'InfoSpace'
p1154
aS'q'
aS'/search/web?q={k}'
p1155
aaa(lp1156
S'dogpile.com'
p1157
a(lp1158
g1154
aaa(lp1159
S'tattoodle.com'
p1160
a(lp1161
g1154
aaa(lp1162
S'metacrawler.com'
p1163
a(lp1164
g1154
aaa(lp1165
S'webfetch.com'
p1166
a(lp1167
g1154
aaa(lp1168
S'webcrawler.com'
p1169
a(lp1170
g1154
aaa(lp1171
S'search.kiwee.com'
p1172
a(lp1173
g1154
aaa(lp1174
S'searches.vi-view.com'
p1175
a(lp1176
g1154
aaa(lp1177
S'search.webssearches.com'
p1178
a(lp1179
g1154
aaa(lp1180
S'search.fbdownloader.com'
p1181
a(lp1182
g1154
aaa(lp1183
S'searches3.globososo.com'
p1184
a(lp1185
g1154
aaa(lp1186
S'wsdsold.infospace.com'
p1187
a(lp1188
g1154
aS'/\\/[^\\/]+\\/ws\\/results\\/[^\\/]+\\/([^\\/]+)/'
p1189
aS'pemonitorhosted/ws/results/Web/{k}/1/417/TopNavigation/Source/'
p1190
aaa(lp1191
S'isearch.babylon.com'
p1192
a(lp1193
g1154
aS'q'
aaa(lp1194
S'start.facemoods.com'
p1195
a(lp1196
g1154
aS's'
aaa(lp1197
S'start.funmoods.com'
p1198
a(lp1199
g1154
aS'q'
aaa(lp1200
S'search.magentic.com'
p1201
a(lp1202
g1154
aS'q'
aaa(lp1203
S'search.searchcompletion.com'
p1204
a(lp1205
g1154
aS'q'
aaa(lp1206
S'www.searchmobileonline.com'
p1207
a(lp1208
g1154
aS'q'
aaa(lp1209
S'isearch.glarysoft.com'
p1210
a(lp1211
g1154
aS'q'
aaa(lp1212
S'search.chatzum.com'
p1213
a(lp1214
g1154
aS'q'
aaa(lp1215
S'home.speedbit.com'
p1216
a(lp1217
g1154
aS'q'
aaa(lp1218
S'search.b1.org'
p1219
a(lp1220
g1154
aS'q'
aaa(lp1221
S'searchya.com'
p1222
a(lp1223
g1154
aS'q'
aaa(lp1224
S'search.handycafe.com'
p1225
a(lp1226
g1154
aS'q'
aaa(lp1227
S'search.v9.com'
p1228
a(lp1229
g1154
aS'q'
aaa(lp1230
S'search.iminent.com'
p1231
a(lp1232
g1154
aS'q'
aaa(lp1233
S'utorrent.inspsearch.com'
p1234
a(lp1235
g1154
aS'q'
aaa(lp1236
S'www.google.interia.pl'
p1237
a(lp1238
S'Interia'
p1239
aS'q'
aS'szukaj?q={k}'
p1240
aaa(lp1241
S'start.iplay.com'
p1242
a(lp1243
S'I-play'
p1244
aS'q'
aS'searchresults.aspx?q={k}'
p1245
aaa(lp1246
S'ixquick.com'
p1247
a(lp1248
S'Ixquick'
p1249
ag129
aaa(lp1250
S'www.eu.ixquick.com'
p1251
a(lp1252
g1249
aaa(lp1253
S'ixquick.de'
p1254
a(lp1255
g1249
aaa(lp1256
S'www.ixquick.de'
p1257
a(lp1258
g1249
aaa(lp1259
S'us.ixquick.com'
p1260
a(lp1261
g1249
aaa(lp1262
S's1.us.ixquick.com'
p1263
a(lp1264
g1249
aaa(lp1265
S's2.us.ixquick.com'
p1266
a(lp1267
g1249
aaa(lp1268
S's3.us.ixquick.com'
p1269
a(lp1270
g1249
aaa(lp1271
S's4.us.ixquick.com'
p1272
a(lp1273
g1249
aaa(lp1274
S's5.us.ixquick.com'
p1275
a(lp1276
g1249
aaa(lp1277
S'eu.ixquick.com'
p1278
a(lp1279
g1249
aaa(lp1280
S's8-eu.ixquick.com'
p1281
a(lp1282
g1249
aaa(lp1283
S's1-eu.ixquick.de'
p1284
a(lp1285
g1249
aaa(lp1286
S's2-eu4.ixquick.com'
p1287
a(lp1288
g1249
aaa(lp1289
S's5-eu4.ixquick.com'
p1290
a(lp1291
g1249
aaa(lp1292
S'jyxo.1188.cz'
p1293
a(lp1294
S'Jyxo'
p1295
aS'q'
aS's?q={k}'
p1296
aaa(lp1297
S'www.jungle-spider.de'
p1298
a(lp1299
S'Jungle Spider'
p1300
aS'q'
aaa(lp1301
S'junglekey.com'
p1302
a(lp1303
S'Jungle Key'
p1304
ag129
aS'search.php?query={k}&type=web&lang=en'
p1305
aaa(lp1306
S'junglekey.fr'
p1307
a(lp1308
S'Jungle Key'
p1309
aaa(lp1310
S'k9safesearch.com'
p1311
a(lp1312
S'K9 Safe Search'
p1313
aS'q'
aS'search.jsp?q={k}'
p1314
aaa(lp1315
S'www.kataweb.it'
p1316
a(lp1317
S'Kataweb'
p1318
aS'q'
aaa(lp1319
S'www.kvasir.no'
p1320
a(lp1321
S'Kvasir'
p1322
aS'q'
aS'alle?q={k}'
p1323
aaa(lp1324
S'www.latne.lv'
p1325
a(lp1326
S'Latne'
p1327
aS'q'
aS'siets.php?q={k}'
p1328
aaa(lp1329
S'www.toile.com'
p1330
a(lp1331
S'La Toile Du Qu\xc3\xa9bec (Google)'
p1332
aS'q'
aS'search?q={k}'
p1333
aaa(lp1334
S'web.toile.com'
p1335
a(lp1336
S'La Toile Du Qu\xc3\xa9bec (Google)'
p1337
aaa(lp1338
S'www.lookany.com'
p1339
a(lp1340
S'LookAny'
p1341
aS'/(?:search|images|videos)\\/([^\\/]+)/'
p1342
aaa(lp1343
S'www.looksmart.com'
p1344
a(lp1345
S'Looksmart'
p1346
aS'key'
p1347
aaa(lp1348
S'lo.st'
p1349
a(lp1350
S'Lo.st'
p1351
ag689
aS'cgi-bin/eolost.cgi?x_query={k}'
p1352
aaa(lp1353
S'search.lycos.com'
p1354
a(lp1355
S'Lycos'
p1356
ag129
aS'?query={k}'
p1357
aaa(lp1358
S'lycos.{}'
p1359
a(lp1360
g1356
aaa(lp1361
S'www.maailm.com'
p1362
a(lp1363
S'maailm.com'
p1364
aS'tekst'
p1365
aaa(lp1366
S'go.mail.ru'
p1367
a(lp1368
S'Mailru'
p1369
aS'q'
aS'search?rch=e&q={k}'
p1370
a(lp1371
S'UTF-8'
p1372
aS'windows-1251'
p1373
aaaa(lp1374
S'www.mamma.com'
p1375
a(lp1376
S'Mamma'
p1377
ag129
aS'result.php?q={k}'
p1378
aaa(lp1379
S'mamma75.mamma.com'
p1380
a(lp1381
g1377
aaa(lp1382
S'meta.ua'
p1383
a(lp1384
S'Meta.ua'
p1385
aS'q'
aS'search.asp?q={k}'
p1386
aaa(lp1387
S's1.metacrawler.de'
p1388
a(lp1389
S'MetaCrawler DE'
p1390
ag720
aS'?qry={k}'
p1391
aaa(lp1392
S's2.metacrawler.de'
p1393
a(lp1394
S'MetaCrawler DE'
p1395
aaa(lp1396
S's3.metacrawler.de'
p1397
a(lp1398
S'MetaCrawler DE'
p1399
aaa(lp1400
S'meta.rrzn.uni-hannover.de'
p1401
a(lp1402
S'Metager'
p1403
aS'eingabe'
p1404
aS'meta/cgi-bin/meta.ger1?eingabe={k}'
p1405
aaa(lp1406
S'www.metager.de'
p1407
a(lp1408
g1403
aaa(lp1409
S'metager.de'
p1410
a(lp1411
g1403
aaa(lp1412
S'metager2.de'
p1413
a(lp1414
S'Metager2'
p1415
aS'q'
aS'search/index.php?q={k}'
p1416
aaa(lp1417
S'www.meinestadt.de'
p1418
a(lp1419
S'Meinestadt.de'
p1420
ag112
aaa(lp1421
S'www.mister-wong.com'
p1422
a(lp1423
S'Mister Wong'
p1424
aS'keywords'
p1425
aS'search/?keywords={k}'
p1426
aaa(lp1427
S'www.mister-wong.de'
p1428
a(lp1429
S'Mister Wong'
p1430
aaa(lp1431
S'www.monstercrawler.com'
p1432
a(lp1433
S'Monstercrawler'
p1434
ag720
aaa(lp1435
S'www.mozbot.fr'
p1436
a(lp1437
S'mozbot'
p1438
aS'q'
aS'results.php?q={k}'
p1439
aaa(lp1440
S'www.mozbot.co.uk'
p1441
a(lp1442
g1438
aaa(lp1443
S'www.mozbot.com'
p1444
a(lp1445
g1438
aaa(lp1446
S'ariadna.elmundo.es'
p1447
a(lp1448
S'El Mundo'
p1449
aS'q'
aaa(lp1450
S'searchservice.myspace.com'
p1451
a(lp1452
S'MySpace'
p1453
ag720
aS'index.cfm?fuseaction=sitesearch.results&type=Web&qry={k}'
p1454
aaa(lp1455
S'www.mysearch.com'
p1456
a(lp1457
S'MyWebSearch'
p1458
a(lp1459
g282
aS'searchFor'
p1460
aaS'search/Ajmain.jhtml?searchfor={k}'
p1461
aaa(lp1462
S'ms114.mysearch.com'
p1463
a(lp1464
g1458
aaa(lp1465
S'ms146.mysearch.com'
p1466
a(lp1467
g1458
aaa(lp1468
S'kf.mysearch.myway.com'
p1469
a(lp1470
g1458
aaa(lp1471
S'ki.mysearch.myway.com'
p1472
a(lp1473
g1458
aaa(lp1474
S'search.myway.com'
p1475
a(lp1476
g1458
aaa(lp1477
S'search.mywebsearch.com'
p1478
a(lp1479
g1458
aaa(lp1480
S'www.najdi.si'
p1481
a(lp1482
S'Najdi.si'
p1483
aS'q'
aS'search.jsp?q={k}'
p1484
aaa(lp1485
S'search.nate.com'
p1486
a(lp1487
S'Nate'
p1488
aS'q'
aS'search/all.html?q={k}'
p1489
aS'EUC-KR'
p1490
aaa(lp1491
S'search.naver.com'
p1492
a(lp1493
S'Naver'
p1494
ag129
aS'search.naver?query={k}'
p1495
aaa(lp1496
S'ko.search.need2find.com'
p1497
a(lp1498
S'Needtofind'
p1499
ag282
aS'search/AJmain.jhtml?searchfor={k}'
p1500
aaa(lp1501
S'www.neti.ee'
p1502
a(lp1503
S'Neti'
p1504
ag129
aS'cgi-bin/otsing?query={k}'
p1505
aS'iso-8859-1'
p1506
aaa(lp1507
S'search.nifty.com'
p1508
a(lp1509
S'Nifty'
p1510
a(lp1511
S'q'
aS'Text'
p1512
aaS'websearch/search?q={k}'
p1513
aaa(lp1514
S'search.azby.fmworld.net'
p1515
a(lp1516
g1510
aaa(lp1517
S'videosearch.nifty.com'
p1518
a(lp1519
S'Nifty Videos'
p1520
ag398
aS'search?kw={k}'
p1521
aaa(lp1522
S'nigma.ru'
p1523
a(lp1524
S'Nigma'
p1525
aS's'
aS'index.php?s={k}'
p1526
aaa(lp1527
S'szukaj.onet.pl'
p1528
a(lp1529
S'Onet.pl'
p1530
aS'qt'
p1531
aS'query.html?qt={k}'
p1532
aaa(lp1533
S'online.no'
p1534
a(lp1535
S'Online.no'
p1536
aS'q'
aS'google/index.jsp?q={k}'
p1537
aaa(lp1538
S'www.1881.no'
p1539
a(lp1540
S'Opplysningen 1881'
p1541
aS'Query'
p1542
aS'Multi/?Query={k}'
p1543
aaa(lp1544
S'busca.orange.es'
p1545
a(lp1546
S'Orange'
p1547
aS'q'
aS'search?q={k}'
p1548
aaa(lp1549
S'lemoteur.ke.voila.fr'
p1550
a(lp1551
g1547
ag398
aS'?kw={k}'
p1552
aaa(lp1553
S'www.paperball.de'
p1554
a(lp1555
S'Paperball'
p1556
aS'q'
aS'suche/s/?q={k}'
p1557
aaa(lp1558
S'search.peoplepc.com'
p1559
a(lp1560
S'PeoplePC'
p1561
aS'q'
aS'search?q={k}'
p1562
aaa(lp1563
S'extern.peoplecheck.de'
p1564
a(lp1565
S'PeopleCheck'
p1566
aS'q'
aS'link.php?q={k}'
p1567
aaa(lp1568
S'www.picsearch.com'
p1569
a(lp1570
S'Picsearch'
p1571
aS'q'
aS'index.cgi?q={k}'
p1572
aaa(lp1573
S'www.plazoo.com'
p1574
a(lp1575
S'Plazoo'
p1576
aS'q'
aaa(lp1577
S'plusnetwork.com'
p1578
a(lp1579
S'PlusNetwork'
p1580
aS'q'
aS'?q={k}'
p1581
aaa(lp1582
S'poisk.ru'
p1583
a(lp1584
S'Poisk.Ru'
p1585
aS'text'
p1586
aS'cgi-bin/poisk?text={k}'
p1587
aS'windows-1251'
p1588
aaa(lp1589
S'search.qip.ru'
p1590
a(lp1591
S'qip.ru'
p1592
ag129
aS'search?query={k}'
p1593
aaa(lp1594
S'www.qualigo.at'
p1595
a(lp1596
S'Qualigo'
p1597
aS'q'
aaa(lp1598
S'www.qualigo.ch'
p1599
a(lp1600
g1597
aaa(lp1601
S'www.qualigo.de'
p1602
a(lp1603
g1597
aaa(lp1604
S'www.qualigo.nl'
p1605
a(lp1606
g1597
aaa(lp1607
S'www.qwant.com'
p1608
a(lp1609
S'Qwant'
p1610
aS'q'
aaa(lp1611
S'websearch.rakuten.co.jp'
p1612
a(lp1613
S'Rakuten'
p1614
ag1531
aS'WebIS?qt={k}'
p1615
aaa(lp1616
S'nova.rambler.ru'
p1617
a(lp1618
S'Rambler'
p1619
a(lp1620
g129
ag112
aaS'search?query={k}'
p1621
aaa(lp1622
S'rpmfind.net'
p1623
a(lp1624
S'rpmfind'
p1625
ag129
aS'linux/rpm2html/search.php?query={k}'
p1626
aaa(lp1627
S'fr2.rpmfind.net'
p1628
a(lp1629
g1625
aaa(lp1630
S'search.rr.com'
p1631
a(lp1632
S'Road Runner'
p1633
aS'q'
aS'?q={k}'
p1634
aaa(lp1635
S'pesquisa.sapo.pt'
p1636
a(lp1637
S'Sapo'
p1638
aS'q'
aS'?q={k}'
p1639
aaa(lp1640
S'scour.com'
p1641
a(lp1642
S'Scour.com'
p1643
aS'/search\\/[^\\/]+\\/(.*)/'
p1644
aS'search/web/{k}'
p1645
aaa(lp1646
S'www.search.com'
p1647
a(lp1648
S'Search.com'
p1649
aS'q'
aS'search?q={k}'
p1650
aaa(lp1651
S'www.search.ch'
p1652
a(lp1653
S'Search.ch'
p1654
aS'q'
aS'?q={k}'
p1655
aaa(lp1656
S'searchalot.com'
p1657
a(lp1658
S'Searchalot'
p1659
aS'q'
aS'?q={k}'
p1660
aaa(lp1661
S'www.searchcanvas.com'
p1662
a(lp1663
S'SearchCanvas'
p1664
aS'q'
aS'web?q={k}'
p1665
aaa(lp1666
S'www.searchy.co.uk'
p1667
a(lp1668
S'Searchy'
p1669
aS'q'
aS'index.html?q={k}'
p1670
aaa(lp1671
S'bg.setooz.com'
p1672
a(lp1673
S'Setooz'
p1674
ag129
aS'search?query={k}'
p1675
aaa(lp1676
S'da.setooz.com'
p1677
a(lp1678
g1674
aaa(lp1679
S'el.setooz.com'
p1680
a(lp1681
g1674
aaa(lp1682
S'fa.setooz.com'
p1683
a(lp1684
g1674
aaa(lp1685
S'ur.setooz.com'
p1686
a(lp1687
g1674
aaa(lp1688
S'{}.setooz.com'
p1689
a(lp1690
g1674
aaa(lp1691
S'search.seznam.cz'
p1692
a(lp1693
S'Seznam'
p1694
aS'q'
aS'?q={k}'
p1695
aaa(lp1696
S'videa.seznam.cz'
p1697
a(lp1698
S'Seznam Videa'
p1699
aS'q'
aS'?q={k}'
p1700
aaa(lp1701
S'www.sharelook.fr'
p1702
a(lp1703
S'Sharelook'
p1704
ag647
aaa(lp1705
S'www.skynet.be'
p1706
a(lp1707
S'Skynet'
p1708
aS'q'
aS'services/recherche/google?q={k}'
p1709
aaa(lp1710
S'm.sm.cn'
p1711
a(lp1712
S'sm.cn'
p1713
aS'q'
aS's?q={k}'
p1714
aaa(lp1715
S'so.m.sm.cn'
p1716
a(lp1717
S'sm.cn'
p1718
aS'q'
aS's?q={k}'
p1719
aaa(lp1720
S'm.sp.sm.cn'
p1721
a(lp1722
S'sm.cn'
p1723
aaa(lp1724
S'{}.sm.cn'
p1725
a(lp1726
S'sm.cn'
p1727
aaa(lp1728
S'www.sm.de'
p1729
a(lp1730
S'sm.de'
p1731
aS'q'
aS'?q={k}'
p1732
aaa(lp1733
S'search.smartaddressbar.com'
p1734
a(lp1735
S'SmartAddressbar'
p1736
aS's'
aS'?s={k}'
p1737
aaa(lp1738
S'search.snap.do'
p1739
a(lp1740
S'Snap.do'
p1741
aS'q'
aS'?q={k}'
p1742
aaa(lp1743
S'search.seesaa.jp'
p1744
a(lp1745
S'SeeSaa'
p1746
aS'/\\/([^\\/]+)\\/index\\.html/'
p1747
aS'{k}/index.html'
p1748
aaa(lp1749
S'www.so-net.ne.jp'
p1750
a(lp1751
S'So-net'
p1752
ag129
aS'search/web/?query={k}'
p1753
aaa(lp1754
S'video.so-net.ne.jp'
p1755
a(lp1756
S'So-net Videos'
p1757
ag398
aS'search/?kw={k}'
p1758
aaa(lp1759
S'www.sogou.com'
p1760
a(lp1761
S'Sogou'
p1762
a(lp1763
g129
ag647
aaS'web?query={k}'
p1764
ag29
aaa(lp1765
S'm.sogou.com'
p1766
a(lp1767
g1762
a(lp1768
g129
ag647
aaaa(lp1769
S'{}.sogou.com'
p1770
a(lp1771
g1762
a(lp1772
g129
ag647
aaaa(lp1773
S'search.softonic.com'
p1774
a(lp1775
S'Softonic'
p1776
aS'q'
aS'default/default?q={k}'
p1777
aaa(lp1778
S'www.soso.com'
p1779
a(lp1780
S'Soso'
p1781
aS'w'
aS'q?w={k}'
p1782
ag29
aaa(lp1783
S'www.sputnik.ru'
p1784
a(lp1785
S'Sputnik'
p1786
aS'q'
aS'search?q={k}'
p1787
aaa(lp1788
S'www.startsiden.no'
p1789
a(lp1790
S'Startsiden'
p1791
aS'q'
aS'sok/index.html?q={k}'
p1792
aaa(lp1793
S'suche.info'
p1794
a(lp1795
S'Suche.info'
p1796
ag266
aS'suche.php?Keywords={k}'
p1797
aaa(lp1798
S'www.suchmaschine.com'
p1799
a(lp1800
S'Suchmaschine.com'
p1801
aS'suchstr'
p1802
aS'cgi-bin/wo.cgi?suchstr={k}'
p1803
aaa(lp1804
S'www.suchnase.de'
p1805
a(lp1806
S'Suchnase'
p1807
aS'q'
aaa(lp1808
S'surfcanyon.com'
p1809
a(lp1810
S'Surf Canyon'
p1811
aS'q'
aaa(lp1812
S'www.talimba.com'
p1813
a(lp1814
S'talimba'
p1815
ag423
aS'index.php?page=search/web&search={k}'
p1816
aaa(lp1817
S'www.talktalk.co.uk'
p1818
a(lp1819
S'TalkTalk'
p1820
ag129
aS'search/results.html?query={k}'
p1821
aaa(lp1822
S'technorati.com'
p1823
a(lp1824
S'Technorati'
p1825
aS'q'
aS'search?return=sites&authority=all&q={k}'
p1826
aaa(lp1827
S'www.teoma.com'
p1828
a(lp1829
S'Teoma'
p1830
aS'q'
aS'web?q={k}'
p1831
aaa(lp1832
S'buscador.terra.es'
p1833
a(lp1834
S'Terra'
p1835
ag129
aS'Default.aspx?source=Search&query={k}'
p1836
aaa(lp1837
S'buscador.terra.cl'
p1838
a(lp1839
g1835
aaa(lp1840
S'buscador.terra.com.br'
p1841
a(lp1842
g1835
aaa(lp1843
S'search.tiscali.it'
p1844
a(lp1845
S'Tiscali'
p1846
a(lp1847
S'q'
ag1347
aaS'?q={k}'
p1848
aaa(lp1849
S'search-dyn.tiscali.it'
p1850
a(lp1851
g1846
aaa(lp1852
S'hledani.tiscali.cz'
p1853
a(lp1854
g1846
ag129
aaa(lp1855
S'www.tixuma.de'
p1856
a(lp1857
S'Tixuma'
p1858
aS'sc'
p1859
aS'index.php?mp=search&stp=&sc={k}&tg=0'
p1860
aaa(lp1861
S'suche.t-online.de'
p1862
a(lp1863
S'T-Online'
p1864
aS'q'
aS'fast-cgi/tsc?mandant=toi&context=internet-tab&q={k}'
p1865
aaa(lp1866
S'brisbane.t-online.de'
p1867
a(lp1868
S'T-Online'
p1869
aaa(lp1870
S'navigationshilfe.t-online.de'
p1871
a(lp1872
S'T-Online'
p1873
aS'q'
aS'dtag/dns/results?mode=search_top&q={k}'
p1874
aaa(lp1875
S'www.toolbarhome.com'
p1876
a(lp1877
S'Toolbarhome'
p1878
aS'q'
aS'search.aspx?q={k}'
p1879
aaa(lp1880
S'vshare.toolbarhome.com'
p1881
a(lp1882
g1878
aaa(lp1883
S'www.toppreise.ch'
p1884
a(lp1885
S'Toppreise.ch'
p1886
ag423
aS'index.php?search={k}'
p1887
aS'ISO-8859-1'
p1888
aaa(lp1889
S'toppreise.ch'
p1890
a(lp1891
S'Toppreise.ch'
p1892
aNaNaS'ISO-8859-1'
p1893
aaa(lp1894
S'fr.toppreise.ch'
p1895
a(lp1896
S'Toppreise.ch'
p1897
aNaNaS'ISO-8859-1'
p1898
aaa(lp1899
S'de.toppreise.ch'
p1900
a(lp1901
S'Toppreise.ch'
p1902
aNaNaS'ISO-8859-1'
p1903
aaa(lp1904
S'en.toppreise.ch'
p1905
a(lp1906
S'Toppreise.ch'
p1907
aNaNaS'ISO-8859-1'
p1908
aaa(lp1909
S'www.trouvez.com'
p1910
a(lp1911
S'Trouvez.com'
p1912
ag129
aaa(lp1913
S'www.trovarapido.com'
p1914
a(lp1915
S'TrovaRapido'
p1916
aS'q'
aS'result.php?q={k}'
p1917
aaa(lp1918
S'www.trusted-search.com'
p1919
a(lp1920
S'Trusted Search'
p1921
aS'w'
aS'search?w={k}'
p1922
aaa(lp1923
S'www.twingly.com'
p1924
a(lp1925
S'Twingly'
p1926
aS'q'
aS'search?q={k}'
p1927
aaa(lp1928
S'busca.uol.com.br'
p1929
a(lp1930
S'uol.com.br'
p1931
aS'q'
aS'/web/?q={k}'
p1932
aaa(lp1933
S'www.url.org'
p1934
a(lp1935
S'URL.ORGanzier'
p1936
aS'q'
aS'?l=de&q={k}'
p1937
aaa(lp1938
S'www.vinden.nl'
p1939
a(lp1940
S'Vinden'
p1941
aS'q'
aS'?q={k}'
p1942
aaa(lp1943
S'www.vindex.nl'
p1944
a(lp1945
S'Vindex'
p1946
ag1137
aS'/web?search_for={k}'
p1947
aaa(lp1948
S'search.vindex.nl'
p1949
a(lp1950
g1946
aaa(lp1951
S'ricerca.virgilio.it'
p1952
a(lp1953
S'Virgilio'
p1954
ag106
aS'ricerca?qs={k}'
p1955
aaa(lp1956
S'ricercaimmagini.virgilio.it'
p1957
a(lp1958
g1954
aaa(lp1959
S'ricercavideo.virgilio.it'
p1960
a(lp1961
g1954
aaa(lp1962
S'ricercanews.virgilio.it'
p1963
a(lp1964
g1954
aaa(lp1965
S'mobile.virgilio.it'
p1966
a(lp1967
g1954
aS'qrs'
p1968
aaa(lp1969
S'search.ke.voila.fr'
p1970
a(lp1971
S'Voila'
p1972
aS'rdata'
p1973
aS'S/voila?rdata={k}'
p1974
aaa(lp1975
S'www.lemoteur.fr'
p1976
a(lp1977
g1972
aaa(lp1978
S'web.volny.cz'
p1979
a(lp1980
S'Volny'
p1981
ag423
aS'fulltext/?search={k}'
p1982
aS'windows-1250'
p1983
aaa(lp1984
S'www.walhello.info'
p1985
a(lp1986
S'Walhello'
p1987
ag1347
aS'search?key={k}'
p1988
aaa(lp1989
S'www.walhello.com'
p1990
a(lp1991
g1987
aaa(lp1992
S'www.walhello.de'
p1993
a(lp1994
g1987
aaa(lp1995
S'www.walhello.nl'
p1996
a(lp1997
g1987
aaa(lp1998
S'suche.web.de'
p1999
a(lp2000
S'Web.de'
p2001
a(lp2002
S'su'
p2003
aS'q'
aaS'search/web/?su={k}'
p2004
aaa(lp2005
S'm.suche.web.de'
p2006
a(lp2007
S'Web.de'
p2008
aaa(lp2009
S'www.web.nl'
p2010
a(lp2011
S'Web.nl'
p2012
aS'zoekwoord'
p2013
aaa(lp2014
S'www.weborama.fr'
p2015
a(lp2016
S'weborama'
p2017
aS'QUERY'
p2018
aaa(lp2019
S'www.websearch.com'
p2020
a(lp2021
S'WebSearch'
p2022
a(lp2023
S'qkw'
p2024
aS'q'
aaS'search/results2.aspx?q={k}'
p2025
aaa(lp2026
S'fr.wedoo.com'
p2027
a(lp2028
S'Wedoo'
p2029
ag647
aaa(lp2030
S'en.wedoo.com'
p2031
a(lp2032
g2029
aaa(lp2033
S'es.wedoo.com'
p2034
a(lp2035
g2029
aaa(lp2036
S'search.winamp.com'
p2037
a(lp2038
S'Winamp'
p2039
aS'q'
aS'search/search?q={k}'
p2040
aaa(lp2041
S'www.witch.de'
p2042
a(lp2043
S'Witch'
p2044
ag423
aS'search-result.php?cn=0&search={k}'
p2045
aaa(lp2046
S'szukaj.wp.pl'
p2047
a(lp2048
S'Wirtualna Polska'
p2049
aS'szukaj'
p2050
aS'http:#szukaj.wp.pl/szukaj.html?szukaj={k}'
p2051
aaa(lp2052
S'www.woopie.jp'
p2053
a(lp2054
S'Woopie'
p2055
ag398
aS'search?kw={k}'
p2056
aaa(lp2057
S'search.www.ee'
p2058
a(lp2059
S'www v\xc3\xa4rav'
p2060
ag129
aaa(lp2061
S'www.x-recherche.com'
p2062
a(lp2063
S'X-Recherche'
p2064
aS'MOTS'
p2065
aS'cgi-bin/websearch?MOTS={k}'
p2066
aaa(lp2067
S'search.yahoo.co.jp'
p2068
a(lp2069
S'Yahoo! Japan'
p2070
a(lp2071
S'p'
aS'vp'
p2072
aaS'search?p={k}'
p2073
aaa(lp2074
S'jp.hao123.com'
p2075
a(lp2076
S'Yahoo! Japan'
p2077
ag129
aaa(lp2078
S'video.search.yahoo.co.jp'
p2079
a(lp2080
S'Yahoo! Japan Videos'
p2081
aS'p'
aS'search?p={k}'
p2082
aaa(lp2083
S'image.search.yahoo.co.jp'
p2084
a(lp2085
S'Yahoo! Japan Images'
p2086
aS'p'
aS'search?p={k}'
p2087
aaa(lp2088
S'search.yahoo.com'
p2089
a(lp2090
S'Yahoo!'
p2091
a(lp2092
S'p'
aS'q'
aaS'search?p={k}'
p2093
aaa(lp2094
S'yahoo.com'
p2095
a(lp2096
S'Yahoo!'
p2097
aaa(lp2098
S'yahoo.{}'
p2099
a(lp2100
S'Yahoo!'
p2101
aaa(lp2102
S'{}.yahoo.com'
p2103
a(lp2104
S'Yahoo!'
p2105
aaa(lp2106
S'cade.yahoo.com'
p2107
a(lp2108
S'Yahoo!'
p2109
aaa(lp2110
S'espanol.yahoo.com'
p2111
a(lp2112
S'Yahoo!'
p2113
aaa(lp2114
S'qc.yahoo.com'
p2115
a(lp2116
S'Yahoo!'
p2117
aaa(lp2118
S'one.cn.yahoo.com'
p2119
a(lp2120
S'Yahoo!'
p2121
aaa(lp2122
S'www.cercato.it'
p2123
a(lp2124
S'Yahoo!'
p2125
aS'q'
aaa(lp2126
S'search.offerbox.com'
p2127
a(lp2128
S'Yahoo!'
p2129
aS'q'
aaa(lp2130
S'www.benefind.de'
p2131
a(lp2132
S'Yahoo!'
p2133
aS'q'
aaa(lp2134
S'ys.mirostart.com'
p2135
a(lp2136
S'Yahoo!'
p2137
aS'q'
aaa(lp2138
S'search.yahoo.com/search/dir'
p2139
a(lp2140
S'Yahoo! Directory'
p2141
aS'p'
aS'?p={k}'
p2142
aaa(lp2143
S'images.search.yahoo.com'
p2144
a(lp2145
S'Yahoo! Images'
p2146
a(lp2147
S'p'
aS'va'
p2148
aaS'search/images?p={k}'
p2149
aaa(lp2150
S'{}.images.yahoo.com'
p2151
a(lp2152
S'Yahoo! Images'
p2153
aaa(lp2154
S'cade.images.yahoo.com'
p2155
a(lp2156
S'Yahoo! Images'
p2157
aaa(lp2158
S'espanol.images.yahoo.com'
p2159
a(lp2160
S'Yahoo! Images'
p2161
aaa(lp2162
S'qc.images.yahoo.com'
p2163
a(lp2164
S'Yahoo! Images'
p2165
aaa(lp2166
S'search.yam.com'
p2167
a(lp2168
S'Yam'
p2169
aS'k'
aS'Search/Web/?SearchType=web&k={k}'
p2170
aaa(lp2171
S'yandex.ru'
p2172
a(lp2173
S'Yandex'
p2174
ag1586
aS'yandsearch?text={k}'
p2175
aaa(lp2176
S'yandex.com'
p2177
a(lp2178
g2174
aaa(lp2179
S'yandex.{}'
p2180
a(lp2181
g2174
aaa(lp2182
S'images.yandex.ru'
p2183
a(lp2184
S'Yandex Images'
p2185
ag1586
aS'yandsearch?text={k}'
p2186
aaa(lp2187
S'images.yandex.com'
p2188
a(lp2189
S'Yandex Images'
p2190
aaa(lp2191
S'images.yandex.{}'
p2192
a(lp2193
S'Yandex Images'
p2194
aaa(lp2195
S'www.yasni.de'
p2196
a(lp2197
S'Yasni'
p2198
ag129
aaa(lp2199
S'www.yasni.com'
p2200
a(lp2201
g2198
aaa(lp2202
S'www.yasni.co.uk'
p2203
a(lp2204
g2198
aaa(lp2205
S'www.yasni.ch'
p2206
a(lp2207
g2198
aaa(lp2208
S'www.yasni.at'
p2209
a(lp2210
g2198
aaa(lp2211
S'www.yatedo.com'
p2212
a(lp2213
S'Yatedo'
p2214
aS'q'
aS'search/profil?q={k}'
p2215
aaa(lp2216
S'www.yatedo.fr'
p2217
a(lp2218
g2214
aaa(lp2219
S'yellowmap.de'
p2220
a(lp2221
S'Yellowmap'
p2222
aS' '
aaa(lp2223
S'search.yippy.com'
p2224
a(lp2225
S'Yippy'
p2226
ag129
aS'search?query={k}'
p2227
aaa(lp2228
S'www.yougoo.fr'
p2229
a(lp2230
S'YouGoo'
p2231
aS'q'
aS'?cx=search&q={k}'
p2232
aaa(lp2233
S'www.zapmeta.com'
p2234
a(lp2235
S'Zapmeta'
p2236
a(lp2237
S'q'
ag129
aaS'?q={k}'
p2238
aaa(lp2239
S'zapmeta.{}'
p2240
a(lp2241
g2236
aaa(lp2242
S'uk.zapmeta.com'
p2243
a(lp2244
g2236
aaa(lp2245
S'ar.zapmeta.com'
p2246
a(lp2247
g2236
aaa(lp2248
S'au.zapmeta.com'
p2249
a(lp2250
g2236
aaa(lp2251
S'ca.zapmeta.com'
p2252
a(lp2253
g2236
aaa(lp2254
S'fi.zapmeta.com'
p2255
a(lp2256
g2236
aaa(lp2257
S'no.zapmeta.com'
p2258
a(lp2259
g2236
aaa(lp2260
S'tr.zapmeta.com'
p2261
a(lp2262
g2236
aaa(lp2263
S'www3.zoek.nl'
p2264
a(lp2265
S'Zoek'
p2266
aS'q'
aaa(lp2267
S'p.zhongsou.com'
p2268
a(lp2269
S'Zhongsou'
p2270
aS'w'
aS'p?w={k}'
p2271
aaa(lp2272
S'www.zoeken.nl'
p2273
a(lp2274
S'Zoeken'
p2275
aS'q'
aS'?q={k}'
p2276
aaa(lp2277
S'zoohoo.cz'
p2278
a(lp2279
S'Zoohoo'
p2280
aS'q'
aS'?q={k}'
p2281
aS'windows-1250'
p2282
aaa(lp2283
S'www.zoznam.sk'
p2284
a(lp2285
S'Zoznam'
p2286
aS's'
aS'hladaj.fcgi?s={k}&co=svet'
p2287
aaa(lp2288
S'www.zxuso.com'
p2289
a(lp2290
S'Zxuso'
p2291
ag396
aS'ri/?wd={k}'
p2292
aaatRp2293
.